target datalayout = "e-m:e-p270:32:32-p271:32:32-p272:64:64-i64:64-i128:128-f80:128-n8:16:32:64-S128"
target triple = "x86_64-unknown-linux-gnu"

%struct.vhost_vring_state = type { i32, i32 }

@.str.1 = private unnamed_addr constant [25 x i8] c"../qemu/net/vhost-vdpa.c\00", align 1
@__func__.vhost_vdpa_get_vring_group = private unnamed_addr constant [27 x i8] c"vhost_vdpa_get_vring_group\00", align 1
@.str.22 = private unnamed_addr constant [23 x i8] c"Cannot get VQ %u group\00", align 1

; Function Attrs: nounwind sspstrong uwtable
define internal i64 @vhost_vdpa_get_vring_group(i32 noundef %device_fd, i32 noundef %vq_index, ptr noundef %errp) #0 {
entry:
  %retval = alloca i64, align 8
  %device_fd.addr = alloca i32, align 4
  %vq_index.addr = alloca i32, align 4
  %errp.addr = alloca ptr, align 8
  %state = alloca %struct.vhost_vring_state, align 4
  %r = alloca i32, align 4
  store i32 %device_fd, ptr %device_fd.addr, align 4
  store i32 %vq_index, ptr %vq_index.addr, align 4
  store ptr %errp, ptr %errp.addr, align 8
  %index = getelementptr inbounds %struct.vhost_vring_state, ptr %state, i32 0, i32 0
  %0 = load i32, ptr %vq_index.addr, align 4
  store i32 %0, ptr %index, align 4
  %num = getelementptr inbounds %struct.vhost_vring_state, ptr %state, i32 0, i32 1
  store i32 0, ptr %num, align 4
  %1 = load i32, ptr %device_fd.addr, align 4
  %call = call i32 (i32, i64, ...) @ioctl(i32 noundef %1, i64 noundef 3221794683, ptr noundef %state) #12
  store i32 %call, ptr %r, align 4
  %2 = load i32, ptr %r, align 4
  %cmp = icmp slt i32 %2, 0
  %lnot = xor i1 %cmp, true
  %lnot1 = xor i1 %lnot, true
  %lnot.ext = zext i1 %lnot1 to i32
  %conv = sext i32 %lnot.ext to i64
  %tobool = icmp ne i64 %conv, 0
  br i1 %tobool, label %if.then, label %if.end

if.then:                                          ; preds = %entry
  %call2 = call ptr @__errno_location() #11
  %3 = load i32, ptr %call2, align 4
  %sub = sub i32 0, %3
  store i32 %sub, ptr %r, align 4
  %4 = load ptr, ptr %errp.addr, align 8
  %call3 = call ptr @__errno_location() #11
  %5 = load i32, ptr %call3, align 4
  %6 = load i32, ptr %vq_index.addr, align 4
  call void (ptr, ptr, i32, ptr, i32, ptr, ...) @error_setg_errno_internal(ptr noundef %4, ptr noundef @.str.1, i32 noundef 446, ptr noundef @__func__.vhost_vdpa_get_vring_group, i32 noundef %5, ptr noundef @.str.22, i32 noundef %6)
  %7 = load i32, ptr %r, align 4
  %conv4 = sext i32 %7 to i64
  store i64 %conv4, ptr %retval, align 8
  br label %return

if.end:                                           ; preds = %entry
  %num5 = getelementptr inbounds %struct.vhost_vring_state, ptr %state, i32 0, i32 1
  %8 = load i32, ptr %num5, align 4
  %conv6 = zext i32 %8 to i64
  store i64 %conv6, ptr %retval, align 8
  br label %return

return:                                           ; preds = %if.end, %if.then
  %9 = load i64, ptr %retval, align 8
  ret i64 %9
}