; Function Attrs: nounwind sspstrong uwtable
define internal fastcc range(i64 -2147483648, 4294967296) i64 @vhost_vdpa_get_vring_group(i32 noundef %device_fd, i32 noundef %vq_index, ptr noundef %errp) unnamed_addr #0 {
entry:
  %state = alloca %struct.vhost_vring_state, align 4
  store i32 %vq_index, ptr %state, align 4
  %num = getelementptr inbounds nuw i8, ptr %state, i64 4
  store i32 0, ptr %num, align 4
  %call = call i32 (i32, i64, ...) @ioctl(i32 noundef %device_fd, i64 noundef 3221794683, ptr noundef nonnull %state) #13
  %cmp = icmp slt i32 %call, 0
  br i1 %cmp, label %if.then, label %if.end

if.then:                                          ; preds = %entry
  %call2 = tail call ptr @__errno_location() #14
  %0 = load i32, ptr %call2, align 4
  %sub = sub i32 0, %0
  call void (ptr, ptr, i32, ptr, i32, ptr, ...) @error_setg_errno_internal(ptr noundef %errp, ptr noundef nonnull @.str.1, i32 noundef 446, ptr noundef nonnull @__func__.vhost_vdpa_get_vring_group, i32 noundef %0, ptr noundef nonnull @.str.22, i32 noundef %vq_index) #13
  %conv4 = sext i32 %sub to i64
  br label %return

if.end:                                           ; preds = %entry
  %1 = load i32, ptr %num, align 4
  %conv6 = zext i32 %1 to i64
  br label %return

return:                                           ; preds = %if.end, %if.then
  %retval.0 = phi i64 [ %conv4, %if.then ], [ %conv6, %if.end ]
  ret i64 %retval.0
}